; Function Attrs: mustprogress nofree norecurse nosync nounwind willreturn memory(argmem: read) uwtable
define noundef double @_ZNK6colvar4tilt5dist2ERK11colvarvalueS3_(ptr nocapture nonnull readnone align 8 %0, ptr nocapture noundef nonnull readonly align 8 dereferenceable(168) %1, ptr nocapture noundef nonnull readonly align 8 dereferenceable(168) %2) unnamed_addr #3 align 2 {
  %4 = getelementptr inbounds i8, ptr %1, i64 8
  %5 = load double, ptr %4, align 8
  %6 = getelementptr inbounds i8, ptr %2, i64 8
  %7 = load double, ptr %6, align 8
  %8 = fsub double %5, %7
  %9 = fmul double %8, %8
  ret double %9
}